Certificate:
    Data:
        Version: 3 (0x2)
        Serial Number: 4100 (0x1004)
    Signature Algorithm: sha1WithRSAEncryption
        Issuer: C=US, ST=California, O=OpenResty, CN=Signing-CA-2
        Validity
            Not Before: Sep 20 05:27:46 2014 GMT
            Not After : Aug 27 05:27:46 2114 GMT
        Subject: C=US, ST=California, O=OpenResty, CN=test.com
        Subject Public Key Info:
            Public Key Algorithm: rsaEncryption
                Public-Key: (1024 bit)
                Modulus:
                    00:d8:53:ac:ac:5c:3f:f9:80:a8:96:4b:b0:58:db:
                    5a:86:de:ca:30:02:d9:19:c8:f6:14:c5:40:c9:41:
                    eb:bb:7a:d1:e1:f9:96:3b:54:d5:e8:bf:ac:50:5a:
                    49:11:da:99:60:44:e0:25:68:40:36:7c:f6:ce:b4:
                    9c:b9:58:d6:ea:e7:44:98:63:eb:a2:72:f8:e9:69:
                    b4:4a:4d:68:86:41:ca:67:58:61:e6:70:e8:08:fe:
                    ad:c2:75:59:24:0e:f0:2f:1a:70:83:8c:a3:77:64:
                    e8:4d:d5:c5:28:62:a9:53:d1:a1:22:f5:36:43:a7:
                    46:00:aa:97:54:72:d4:72:47
                Exponent: 65537 (0x10001)
        X509v3 extensions:
            X509v3 Basic Constraints: 
                CA:FALSE
            Netscape Comment: 
                OpenSSL Generated Certificate
            X509v3 Subject Key Identifier: 
                1F:DB:C0:D9:3C:4B:77:A8:9A:AC:33:1F:7B:70:C4:CF:BA:C8:07:DD
            X509v3 Authority Key Identifier: 
                keyid:39:77:77:A3:4E:92:8B:E2:25:20:72:64:35:0A:7A:87:A8:58:A9:F8

    Signature Algorithm: sha1WithRSAEncryption
         1e:cd:83:66:b1:db:ea:5c:37:7e:bc:31:44:52:72:03:ae:9b:
         44:20:2c:ad:00:20:a5:dc:cf:9d:c8:c8:8f:df:cf:24:26:9c:
         43:83:f4:d2:ff:eb:d9:e4:7d:25:cf:1f:b8:aa:63:58:03:b9:
         da:52:42:f8:fe:2e:71:cc:8f:de:26:34:cd:da:5c:7a:3b:64:
         07:18:27:a1:61:b6:58:32:96:10:97:f2:7f:00:c4:44:43:b7:
         9d:e2:31:69:4f:c2:95:c5:a3:32:d1:c0:00:c6:ef:58:b9:0f:
         e6:08:3a:0d:c9:c0:14:f7:26:8c:43:13:55:1b:93:71:72:c7:
         ad:2f
-----BEGIN CERTIFICATE-----
MIICijCCAfOgAwIBAgICEAQwDQYJKoZIhvcNAQEFBQAwTTELMAkGA1UEBhMCVVMx
EzARBgNVBAgMCkNhbGlmb3JuaWExEjAQBgNVBAoMCU9wZW5SZXN0eTEVMBMGA1UE
AwwMU2lnbmluZy1DQS0yMCAXDTE0MDkyMDA1Mjc0NloYDzIxMTQwODI3MDUyNzQ2
WjBJMQswCQYDVQQGEwJVUzETMBEGA1UECAwKQ2FsaWZvcm5pYTESMBAGA1UECgwJ
T3BlblJlc3R5MREwDwYDVQQDDAh0ZXN0LmNvbTCBnzANBgkqhkiG9w0BAQEFAAOB
jQAwgYkCgYEA2FOsrFw/+YColkuwWNtaht7KMALZGcj2FMVAyUHru3rR4fmWO1TV
6L+sUFpJEdqZYETgJWhANnz2zrScuVjW6udEmGPronL46Wm0Sk1ohkHKZ1hh5nDo
CP6twnVZJA7wLxpwg4yjd2ToTdXFKGKpU9GhIvU2Q6dGAKqXVHLUckcCAwEAAaN7
MHkwCQYDVR0TBAIwADAsBglghkgBhvhCAQ0EHxYdT3BlblNTTCBHZW5lcmF0ZWQg
Q2VydGlmaWNhdGUwHQYDVR0OBBYEFB/bwNk8S3eomqwzH3twxM+6yAfdMB8GA1Ud
IwQYMBaAFDl3d6NOkoviJSByZDUKeoeoWKn4MA0GCSqGSIb3DQEBBQUAA4GBAB7N
g2ax2+pcN368MURScgOum0QgLK0AIKXcz53IyI/fzyQmnEOD9NL/69nkfSXPH7iq
Y1gDudpSQvj+LnHMj94mNM3aXHo7ZAcYJ6FhtlgylhCX8n8AxERDt53iMWlPwpXF
ozLRwADG71i5D+YIOg3JwBT3JoxDE1Ubk3Fyx60v
-----END CERTIFICATE-----
Certificate:
    Data:
        Version: 3 (0x2)
        Serial Number: 4098 (0x1002)
    Signature Algorithm: sha1WithRSAEncryption
        Issuer: C=US, ST=California, L=San Francisco, O=OpenResty, CN=Root CA
        Validity
            Not Before: Sep 20 05:09:05 2014 GMT
            Not After : Aug 27 05:09:05 2114 GMT
        Subject: C=US, ST=California, O=OpenResty, CN=Signing-CA-1
        Subject Public Key Info:
            Public Key Algorithm: rsaEncryption
                Public-Key: (1024 bit)
                Modulus:
                    00:b9:9a:3d:b6:31:dd:b6:8a:f1:9f:61:25:79:70:
                    f6:ea:4b:6a:0f:0c:72:ea:45:fc:4d:51:cf:f5:71:
                    88:94:9c:f9:04:40:99:fd:2d:17:15:3a:de:5f:70:
                    4a:06:79:13:fb:81:49:ad:da:59:44:12:81:74:9d:
                    d8:19:3e:4e:e8:c7:00:ee:f9:96:81:7a:bf:09:e6:
                    88:b0:e3:b2:e8:ca:e3:72:23:e4:86:83:41:ca:b3:
                    49:c0:f5:76:8a:d7:b5:fc:a3:12:1b:2b:0b:b4:57:
                    10:24:97:40:be:cb:17:e7:c5:de:93:1b:59:94:ff:
                    34:3f:cd:4d:14:76:09:0e:f3
                Exponent: 65537 (0x10001)
        X509v3 extensions:
            X509v3 Subject Key Identifier: 
                12:57:8E:2C:9B:CA:C9:8D:F8:88:B1:4D:EE:A6:6D:F3:99:C3:AF:E1
            X509v3 Authority Key Identifier: 
                keyid:56:65:C9:8B:65:55:27:2E:AB:14:F0:26:46:BD:BB:9E:A1:2B:41:58

            X509v3 Basic Constraints: 
                CA:TRUE
    Signature Algorithm: sha1WithRSAEncryption
         1e:fb:6f:3e:12:bd:45:11:59:52:d5:60:ff:7c:73:9e:32:ce:
         76:fa:0b:b6:4a:58:68:db:92:a4:a0:d2:63:24:27:9c:6a:c5:
         6c:fa:84:d4:b5:80:93:b0:79:8f:33:c6:06:99:49:81:99:f4:
         52:ba:bd:ff:6e:f5:69:3f:65:e0:59:51:ce:16:66:2f:39:b5:
         31:ff:18:2a:a4:8e:14:77:7b:a2:2c:54:4b:f0:a5:2c:83:12:
         c4:d5:1c:4a:5f:7b:31:26:ed:63:ba:d5:83:e2:b5:1d:c3:f3:
         34:a0:ba:dd:ee:87:ee:70:71:ae:1b:c5:97:9b:08:a6:9c:ad:
         c0:c2
-----BEGIN CERTIFICATE-----
MIICdjCCAd+gAwIBAgICEAIwDQYJKoZIhvcNAQEFBQAwYDELMAkGA1UEBhMCVVMx
EzARBgNVBAgMCkNhbGlmb3JuaWExFjAUBgNVBAcMDVNhbiBGcmFuY2lzY28xEjAQ
BgNVBAoMCU9wZW5SZXN0eTEQMA4GA1UEAwwHUm9vdCBDQTAgFw0xNDA5MjAwNTA5
MDVaGA8yMTE0MDgyNzA1MDkwNVowTTELMAkGA1UEBhMCVVMxEzARBgNVBAgMCkNh
bGlmb3JuaWExEjAQBgNVBAoMCU9wZW5SZXN0eTEVMBMGA1UEAwwMU2lnbmluZy1D
QS0xMIGfMA0GCSqGSIb3DQEBAQUAA4GNADCBiQKBgQC5mj22Md22ivGfYSV5cPbq
S2oPDHLqRfxNUc/1cYiUnPkEQJn9LRcVOt5fcEoGeRP7gUmt2llEEoF0ndgZPk7o
xwDu+ZaBer8J5oiw47LoyuNyI+SGg0HKs0nA9XaK17X8oxIbKwu0VxAkl0C+yxfn
xd6TG1mU/zQ/zU0UdgkO8wIDAQABo1AwTjAdBgNVHQ4EFgQUEleOLJvKyY34iLFN
7qZt85nDr+EwHwYDVR0jBBgwFoAUVmXJi2VVJy6rFPAmRr27nqErQVgwDAYDVR0T
BAUwAwEB/zANBgkqhkiG9w0BAQUFAAOBgQAe+28+Er1FEVlS1WD/fHOeMs52+gu2
Slho25KkoNJjJCecasVs+oTUtYCTsHmPM8YGmUmBmfRSur3/bvVpP2XgWVHOFmYv
ObUx/xgqpI4Ud3uiLFRL8KUsgxLE1RxKX3sxJu1jutWD4rUdw/M0oLrd7ofucHGu
G8WXmwimnK3Awg==
-----END CERTIFICATE-----
Certificate:
    Data:
        Version: 3 (0x2)
        Serial Number: 4099 (0x1003)
    Signature Algorithm: sha1WithRSAEncryption
        Issuer: C=US, ST=California, O=OpenResty, CN=Signing-CA-1
        Validity
            Not Before: Sep 20 05:25:04 2014 GMT
            Not After : Aug 27 05:25:04 2114 GMT
        Subject: C=US, ST=California, O=OpenResty, CN=Signing-CA-2
        Subject Public Key Info:
            Public Key Algorithm: rsaEncryption
                Public-Key: (1024 bit)
                Modulus:
                    00:a4:d0:ae:16:a8:8f:9d:2c:ee:12:f5:0c:5e:29:
                    65:9b:cc:9b:67:6f:40:24:d7:44:ff:d4:de:8d:d4:
                    36:1c:e1:37:2b:df:ff:69:35:6d:0b:4f:ae:9a:16:
                    e7:a9:c6:24:d3:8e:a4:c3:2f:25:d8:f3:66:73:8e:
                    84:8e:9c:a6:c7:f9:ce:8c:b7:9d:60:26:85:4c:8f:
                    f4:43:17:af:9d:94:1a:f5:21:7b:1c:2b:9c:ee:fe:
                    4a:ca:6d:c7:cf:ee:2a:02:28:1f:6e:13:94:85:3f:
                    50:a3:03:18:bd:6c:f9:b5:9d:37:b9:27:61:29:75:
                    d3:39:77:5e:83:41:aa:8c:21
                Exponent: 65537 (0x10001)
        X509v3 extensions:
            X509v3 Subject Key Identifier: 
                39:77:77:A3:4E:92:8B:E2:25:20:72:64:35:0A:7A:87:A8:58:A9:F8
            X509v3 Authority Key Identifier: 
                keyid:12:57:8E:2C:9B:CA:C9:8D:F8:88:B1:4D:EE:A6:6D:F3:99:C3:AF:E1

            X509v3 Basic Constraints: 
                CA:TRUE
    Signature Algorithm: sha1WithRSAEncryption
         3b:4b:b6:31:51:72:9a:ef:42:60:5e:98:60:71:d7:26:4a:46:
         f1:0e:1f:08:be:e6:1b:5f:e2:fd:28:54:8d:b1:c5:09:6f:04:
         cb:69:dc:39:5e:67:e0:91:9f:10:94:bc:35:90:4a:65:fe:58:
         bd:e9:9d:18:f0:b2:c4:2c:6e:05:00:a4:63:59:6a:85:cf:0e:
         28:3a:ad:34:1c:1e:8c:08:cf:ac:79:18:e6:2b:16:49:9c:0b:
         09:66:50:29:53:78:04:9e:3d:27:40:c4:0c:72:d6:8c:d6:b1:
         9c:f5:f2:f8:8c:9c:0b:0d:e1:4b:9b:ec:c9:65:0c:1e:fe:27:
         07:96
-----BEGIN CERTIFICATE-----
MIICYzCCAcygAwIBAgICEAMwDQYJKoZIhvcNAQEFBQAwTTELMAkGA1UEBhMCVVMx
EzARBgNVBAgMCkNhbGlmb3JuaWExEjAQBgNVBAoMCU9wZW5SZXN0eTEVMBMGA1UE
AwwMU2lnbmluZy1DQS0xMCAXDTE0MDkyMDA1MjUwNFoYDzIxMTQwODI3MDUyNTA0
WjBNMQswCQYDVQQGEwJVUzETMBEGA1UECAwKQ2FsaWZvcm5pYTESMBAGA1UECgwJ
T3BlblJlc3R5MRUwEwYDVQQDDAxTaWduaW5nLUNBLTIwgZ8wDQYJKoZIhvcNAQEB
BQADgY0AMIGJAoGBAKTQrhaoj50s7hL1DF4pZZvMm2dvQCTXRP/U3o3UNhzhNyvf
/2k1bQtPrpoW56nGJNOOpMMvJdjzZnOOhI6cpsf5zoy3nWAmhUyP9EMXr52UGvUh
exwrnO7+Ssptx8/uKgIoH24TlIU/UKMDGL1s+bWdN7knYSl10zl3XoNBqowhAgMB
AAGjUDBOMB0GA1UdDgQWBBQ5d3ejTpKL4iUgcmQ1CnqHqFip+DAfBgNVHSMEGDAW
gBQSV44sm8rJjfiIsU3upm3zmcOv4TAMBgNVHRMEBTADAQH/MA0GCSqGSIb3DQEB
BQUAA4GBADtLtjFRcprvQmBemGBx1yZKRvEOHwi+5htf4v0oVI2xxQlvBMtp3Dle
Z+CRnxCUvDWQSmX+WL3pnRjwssQsbgUApGNZaoXPDig6rTQcHowIz6x5GOYrFkmc
CwlmUClTeASePSdAxAxy1ozWsZz18viMnAsN4Uub7MllDB7+JweW
-----END CERTIFICATE-----
