Certificate:
    Data:
        Version: 3 (0x2)
        Serial Number: 8 (0x8)
    Signature Algorithm: sha1WithRSAEncryption
        Issuer: C=US, ST=California, L=Default City, O=OpenResty, CN=signing-ca-2
        Validity
            Not Before: Oct 16 03:27:09 2014 GMT
            Not After : Sep 22 03:27:09 2114 GMT
        Subject: C=US, ST=California, L=Default City, O=OpenResty, CN=revoked-test.com
        Subject Public Key Info:
            Public Key Algorithm: rsaEncryption
                Public-Key: (1024 bit)
                Modulus:
                    00:ca:50:23:9a:59:70:ea:00:47:ff:72:05:29:9b:
                    5d:6d:4b:73:37:a4:ff:38:20:4b:5b:ac:1f:3b:34:
                    f5:12:f8:8b:0e:02:bc:bd:14:34:39:6f:7d:5b:1f:
                    d4:15:e7:64:2e:65:fb:b1:a8:aa:f6:96:d3:e6:2b:
                    00:0e:f3:8a:ef:99:ab:3e:e6:5d:eb:6d:a6:4a:d0:
                    aa:ff:a9:d6:9a:41:f0:66:22:0a:38:9c:28:4f:1f:
                    0d:cf:a2:79:96:f9:fc:3d:1e:83:70:f5:97:6e:07:
                    cf:a2:17:87:0d:2a:41:19:3a:44:96:89:e7:0d:cb:
                    88:20:86:e1:de:08:8b:0d:db
                Exponent: 65537 (0x10001)
        X509v3 extensions:
            X509v3 Basic Constraints: 
                CA:FALSE
            Netscape Comment: 
                OpenSSL Generated Certificate
            X509v3 Subject Key Identifier: 
                FB:98:2B:56:90:69:E1:B4:2B:C2:DB:25:7C:13:87:D5:D7:BC:70:B6
            X509v3 Authority Key Identifier: 
                keyid:B3:0B:F5:7D:51:16:51:7E:28:37:C3:A2:0F:1D:2F:10:C0:51:A3:B3
                DirName:/C=US/ST=California/L=Default City/O=OpenResty/CN=signing-ca-1
                serial:03

            Authority Information Access: 
                OCSP - URI:http://127.0.0.1:8888/ocsp?foo=1

    Signature Algorithm: sha1WithRSAEncryption
         43:77:33:e9:cc:b1:42:35:94:0a:57:a5:dd:94:21:c0:cc:42:
         04:81:bd:b2:ac:4d:10:68:f3:fe:33:0a:8e:b9:3e:e9:f2:44:
         aa:1c:e7:3e:e8:e0:57:40:41:ef:4a:b1:32:b0:f2:75:7c:aa:
         77:d2:64:9d:ba:a1:12:ea:f9:83:31:ba:9f:83:58:1c:38:e9:
         d0:a6:dd:04:72:85:d1:2d:c7:3b:b2:71:ef:e4:f6:57:0c:6a:
         b6:fc:e5:13:2d:be:a6:c1:f4:4b:4d:c8:69:cc:7c:2e:25:c1:
         8e:80:9e:19:c3:17:b2:21:a7:af:e8:2f:f1:d4:bb:8c:a3:39:
         be:49
-----BEGIN CERTIFICATE-----
MIIDcTCCAtqgAwIBAgIBCDANBgkqhkiG9w0BAQUFADBkMQswCQYDVQQGEwJVUzET
MBEGA1UECBMKQ2FsaWZvcm5pYTEVMBMGA1UEBxMMRGVmYXVsdCBDaXR5MRIwEAYD
VQQKEwlPcGVuUmVzdHkxFTATBgNVBAMTDHNpZ25pbmctY2EtMjAgFw0xNDEwMTYw
MzI3MDlaGA8yMTE0MDkyMjAzMjcwOVowaDELMAkGA1UEBhMCVVMxEzARBgNVBAgT
CkNhbGlmb3JuaWExFTATBgNVBAcTDERlZmF1bHQgQ2l0eTESMBAGA1UEChMJT3Bl
blJlc3R5MRkwFwYDVQQDExByZXZva2VkLXRlc3QuY29tMIGfMA0GCSqGSIb3DQEB
AQUAA4GNADCBiQKBgQDKUCOaWXDqAEf/cgUpm11tS3M3pP84IEtbrB87NPUS+IsO
Ary9FDQ5b31bH9QV52QuZfuxqKr2ltPmKwAO84rvmas+5l3rbaZK0Kr/qdaaQfBm
Igo4nChPHw3PonmW+fw9HoNw9ZduB8+iF4cNKkEZOkSWiecNy4gghuHeCIsN2wID
AQABo4IBKzCCAScwCQYDVR0TBAIwADAsBglghkgBhvhCAQ0EHxYdT3BlblNTTCBH
ZW5lcmF0ZWQgQ2VydGlmaWNhdGUwHQYDVR0OBBYEFPuYK1aQaeG0K8LbJXwTh9XX
vHC2MIGOBgNVHSMEgYYwgYOAFLML9X1RFlF+KDfDog8dLxDAUaOzoWikZjBkMQsw
CQYDVQQGEwJVUzETMBEGA1UECBMKQ2FsaWZvcm5pYTEVMBMGA1UEBxMMRGVmYXVs
dCBDaXR5MRIwEAYDVQQKEwlPcGVuUmVzdHkxFTATBgNVBAMTDHNpZ25pbmctY2Et
MYIBAzA8BggrBgEFBQcBAQQwMC4wLAYIKwYBBQUHMAGGIGh0dHA6Ly8xMjcuMC4w
LjE6ODg4OC9vY3NwP2Zvbz0xMA0GCSqGSIb3DQEBBQUAA4GBAEN3M+nMsUI1lApX
pd2UIcDMQgSBvbKsTRBo8/4zCo65PunyRKoc5z7o4FdAQe9KsTKw8nV8qnfSZJ26
oRLq+YMxup+DWBw46dCm3QRyhdEtxzuyce/k9lcMarb85RMtvqbB9EtNyGnMfC4l
wY6AnhnDF7Ihp6/oL/HUu4yjOb5J
-----END CERTIFICATE-----
Certificate:
    Data:
        Version: 3 (0x2)
        Serial Number: 3 (0x3)
    Signature Algorithm: sha1WithRSAEncryption
        Issuer: C=US, ST=California, L=Default City, O=OpenResty, CN=signing-ca-1
        Validity
            Not Before: Oct 16 03:27:09 2014 GMT
            Not After : Sep 22 03:27:09 2114 GMT
        Subject: C=US, ST=California, L=Default City, O=OpenResty, CN=signing-ca-2
        Subject Public Key Info:
            Public Key Algorithm: rsaEncryption
                Public-Key: (1024 bit)
                Modulus:
                    00:d3:24:1c:92:a5:bb:00:d9:b1:fb:2b:1d:7a:32:
                    a1:6c:49:eb:3c:2d:29:80:d6:65:8b:17:3a:f0:4b:
                    dc:0c:57:fb:d5:31:68:a5:e4:54:86:55:f9:1b:a8:
                    d7:7d:32:01:3b:cf:5c:38:2b:f5:bc:d3:8b:c8:b6:
                    ab:76:65:32:e6:4b:d5:e4:fd:d1:92:c8:33:6a:74:
                    f3:c7:ec:97:c3:c7:9f:e4:d5:55:75:b8:bd:39:ec:
                    2d:1f:c6:54:c8:2b:2d:17:e0:05:77:28:44:f7:dd:
                    e1:6e:f0:59:05:51:f5:b9:b4:fe:be:ad:40:a6:d5:
                    9a:c1:64:e0:9b:dd:67:e5:f1
                Exponent: 65537 (0x10001)
        X509v3 extensions:
            X509v3 Subject Key Identifier: 
                B3:0B:F5:7D:51:16:51:7E:28:37:C3:A2:0F:1D:2F:10:C0:51:A3:B3
            X509v3 Authority Key Identifier: 
                keyid:D2:30:71:56:50:A6:BC:21:C5:A1:A1:AB:11:A7:08:5B:EB:3A:A4:27

            X509v3 Basic Constraints: 
                CA:TRUE
    Signature Algorithm: sha1WithRSAEncryption
         0c:61:c0:c7:11:c2:f0:39:f0:76:9d:4f:43:d4:90:54:1f:26:
         3d:54:3d:77:5f:c0:b3:4a:c2:1b:b6:18:d2:12:8d:24:4d:76:
         f5:07:0b:14:3e:17:2d:42:ee:85:30:db:e3:4d:81:67:59:97:
         0a:b3:bb:c5:27:ea:69:c6:ee:99:5c:44:36:53:3e:c4:47:68:
         f8:fe:c6:53:38:fb:e7:9a:0c:3c:6c:78:93:29:d2:49:7d:29:
         d0:61:6e:81:9b:d6:ec:1a:e2:3e:62:62:41:bc:6d:4d:33:91:
         76:20:5e:32:70:08:3e:24:72:fe:b1:8a:83:57:04:19:b5:cb:
         99:b7
-----BEGIN CERTIFICATE-----
MIICkDCCAfmgAwIBAgIBAzANBgkqhkiG9w0BAQUFADBkMQswCQYDVQQGEwJVUzET
MBEGA1UECBMKQ2FsaWZvcm5pYTEVMBMGA1UEBxMMRGVmYXVsdCBDaXR5MRIwEAYD
VQQKEwlPcGVuUmVzdHkxFTATBgNVBAMTDHNpZ25pbmctY2EtMTAgFw0xNDEwMTYw
MzI3MDlaGA8yMTE0MDkyMjAzMjcwOVowZDELMAkGA1UEBhMCVVMxEzARBgNVBAgT
CkNhbGlmb3JuaWExFTATBgNVBAcTDERlZmF1bHQgQ2l0eTESMBAGA1UEChMJT3Bl
blJlc3R5MRUwEwYDVQQDEwxzaWduaW5nLWNhLTIwgZ8wDQYJKoZIhvcNAQEBBQAD
gY0AMIGJAoGBANMkHJKluwDZsfsrHXoyoWxJ6zwtKYDWZYsXOvBL3AxX+9UxaKXk
VIZV+Ruo130yATvPXDgr9bzTi8i2q3ZlMuZL1eT90ZLIM2p088fsl8PHn+TVVXW4
vTnsLR/GVMgrLRfgBXcoRPfd4W7wWQVR9bm0/r6tQKbVmsFk4JvdZ+XxAgMBAAGj
UDBOMB0GA1UdDgQWBBSzC/V9URZRfig3w6IPHS8QwFGjszAfBgNVHSMEGDAWgBTS
MHFWUKa8IcWhoasRpwhb6zqkJzAMBgNVHRMEBTADAQH/MA0GCSqGSIb3DQEBBQUA
A4GBAAxhwMcRwvA58HadT0PUkFQfJj1UPXdfwLNKwhu2GNISjSRNdvUHCxQ+Fy1C
7oUw2+NNgWdZlwqzu8Un6mnG7plcRDZTPsRHaPj+xlM4++eaDDxseJMp0kl9KdBh
boGb1uwa4j5iYkG8bU0zkXYgXjJwCD4kcv6xioNXBBm1y5m3
-----END CERTIFICATE-----
Certificate:
    Data:
        Version: 3 (0x2)
        Serial Number: 2 (0x2)
    Signature Algorithm: sha1WithRSAEncryption
        Issuer: C=US, ST=California, L=Default City, O=OpenResty, CN=root-ca
        Validity
            Not Before: Oct 16 03:27:09 2014 GMT
            Not After : Sep 22 03:27:09 2114 GMT
        Subject: C=US, ST=California, L=Default City, O=OpenResty, CN=signing-ca-1
        Subject Public Key Info:
            Public Key Algorithm: rsaEncryption
                Public-Key: (1024 bit)
                Modulus:
                    00:a0:3e:1a:4f:6c:b9:3d:ab:0f:02:de:da:82:92:
                    ee:a2:69:88:80:ed:f2:b6:98:bc:c6:ee:d3:47:82:
                    4a:e7:d3:7f:55:68:5c:6d:9e:aa:ba:59:e3:5b:7f:
                    32:4f:79:44:4a:4f:13:e4:2e:3f:1f:98:10:a4:72:
                    d5:f0:e7:44:8e:d4:a7:b9:fb:54:be:b6:fa:f7:dc:
                    9c:29:93:d4:9f:a1:5b:18:6e:68:93:91:1b:8c:a0:
                    4f:02:52:e9:9d:e8:98:f3:fd:67:da:78:4b:4f:d8:
                    2d:90:83:5c:0b:e5:fe:48:27:e4:ec:bb:99:26:06:
                    8e:34:fe:93:e4:d2:fc:97:57
                Exponent: 65537 (0x10001)
        X509v3 extensions:
            X509v3 Subject Key Identifier: 
                D2:30:71:56:50:A6:BC:21:C5:A1:A1:AB:11:A7:08:5B:EB:3A:A4:27
            X509v3 Authority Key Identifier: 
                keyid:1D:2F:09:60:EB:E4:EA:B5:0B:52:A9:5C:5E:09:2B:DD:34:70:CF:BA

            X509v3 Basic Constraints: 
                CA:TRUE
    Signature Algorithm: sha1WithRSAEncryption
         a6:16:2f:fc:13:67:5e:ce:0e:79:cb:b0:91:52:9b:9e:b5:9f:
         e1:fa:7d:78:f4:2a:93:f3:94:62:45:17:87:b9:0a:59:b9:a3:
         a9:75:51:ca:f0:04:6c:01:d1:3a:a9:dd:66:7d:27:7b:1e:4f:
         48:3a:25:ea:a5:01:32:fc:87:4b:08:da:f8:f5:62:88:e8:b9:
         94:c7:cb:ee:33:08:ab:2f:52:f4:4a:14:4f:ac:2d:a2:f8:de:
         c9:6f:95:b7:91:23:b9:ec:95:90:de:86:21:f5:6f:1b:cf:13:
         47:77:78:dd:7a:16:e9:8b:cc:df:3d:45:8a:76:af:15:d1:9a:
         37:a2
-----BEGIN CERTIFICATE-----
MIICizCCAfSgAwIBAgIBAjANBgkqhkiG9w0BAQUFADBfMQswCQYDVQQGEwJVUzET
MBEGA1UECBMKQ2FsaWZvcm5pYTEVMBMGA1UEBxMMRGVmYXVsdCBDaXR5MRIwEAYD
VQQKEwlPcGVuUmVzdHkxEDAOBgNVBAMTB3Jvb3QtY2EwIBcNMTQxMDE2MDMyNzA5
WhgPMjExNDA5MjIwMzI3MDlaMGQxCzAJBgNVBAYTAlVTMRMwEQYDVQQIEwpDYWxp
Zm9ybmlhMRUwEwYDVQQHEwxEZWZhdWx0IENpdHkxEjAQBgNVBAoTCU9wZW5SZXN0
eTEVMBMGA1UEAxMMc2lnbmluZy1jYS0xMIGfMA0GCSqGSIb3DQEBAQUAA4GNADCB
iQKBgQCgPhpPbLk9qw8C3tqCku6iaYiA7fK2mLzG7tNHgkrn039VaFxtnqq6WeNb
fzJPeURKTxPkLj8fmBCkctXw50SO1Ke5+1S+tvr33Jwpk9SfoVsYbmiTkRuMoE8C
Uumd6Jjz/WfaeEtP2C2Qg1wL5f5IJ+Tsu5kmBo40/pPk0vyXVwIDAQABo1AwTjAd
BgNVHQ4EFgQU0jBxVlCmvCHFoaGrEacIW+s6pCcwHwYDVR0jBBgwFoAUHS8JYOvk
6rULUqlcXgkr3TRwz7owDAYDVR0TBAUwAwEB/zANBgkqhkiG9w0BAQUFAAOBgQCm
Fi/8E2dezg55y7CRUpuetZ/h+n149CqT85RiRReHuQpZuaOpdVHK8ARsAdE6qd1m
fSd7Hk9IOiXqpQEy/IdLCNr49WKI6LmUx8vuMwirL1L0ShRPrC2i+N7Jb5W3kSO5
7JWQ3oYh9W8bzxNHd3jdehbpi8zfPUWKdq8V0Zo3og==
-----END CERTIFICATE-----
