Certificate:
    Data:
        Version: 3 (0x2)
        Serial Number: 4 (0x4)
    Signature Algorithm: sha1WithRSAEncryption
        Issuer: C=US, ST=California, L=Default City, O=OpenResty, CN=signing-ca-2
        Validity
            Not Before: Oct 16 03:27:09 2014 GMT
            Not After : Sep 22 03:27:09 2114 GMT
        Subject: C=US, ST=California, L=Default City, O=OpenResty, CN=test.com
        Subject Public Key Info:
            Public Key Algorithm: rsaEncryption
                Public-Key: (1024 bit)
                Modulus:
                    00:c7:bd:50:99:71:46:af:93:22:85:ab:74:8b:5b:
                    19:74:af:3e:ad:d2:e1:17:3e:cb:5b:36:9c:8a:38:
                    bd:1b:47:2d:8b:92:55:1d:fe:a6:72:92:78:00:de:
                    30:cb:a3:10:b5:92:aa:b8:e0:7b:44:9a:f5:99:89:
                    36:f4:84:20:81:e3:5c:76:00:9d:76:e7:b9:41:ab:
                    74:b6:14:9f:b2:94:b3:b6:48:a8:92:dc:09:e3:3d:
                    04:e3:5f:0f:5b:50:ad:0c:59:3a:88:06:39:2d:34:
                    a6:52:2f:58:6f:53:1b:df:9f:98:ea:82:8d:52:60:
                    b1:ef:6b:e9:f5:ad:29:87:45
                Exponent: 65537 (0x10001)
        X509v3 extensions:
            X509v3 Basic Constraints: 
                CA:FALSE
            Netscape Comment: 
                OpenSSL Generated Certificate
            X509v3 Subject Key Identifier: 
                67:DF:28:25:D1:F8:83:36:28:EE:DB:41:63:E4:E0:3A:32:0D:EA:30
            X509v3 Authority Key Identifier: 
                keyid:B3:0B:F5:7D:51:16:51:7E:28:37:C3:A2:0F:1D:2F:10:C0:51:A3:B3
                DirName:/C=US/ST=California/L=Default City/O=OpenResty/CN=signing-ca-1
                serial:03

            Authority Information Access: 
                OCSP - URI:http://127.0.0.1:8888/ocsp?foo=1

    Signature Algorithm: sha1WithRSAEncryption
         37:29:3f:ed:d9:47:9a:51:36:a3:5b:00:85:66:de:51:4d:48:
         2d:f8:bc:f1:5e:b4:fd:30:48:f0:25:ee:77:57:9c:f1:4b:0a:
         4f:7e:96:1a:f8:48:76:23:46:8d:d6:f2:5e:1e:08:52:12:53:
         08:07:9f:75:db:77:22:2e:7e:89:c2:2c:66:85:6b:df:e9:77:
         ca:23:6d:9a:af:87:8a:8c:27:37:1e:9e:55:92:8e:8a:a9:93:
         24:41:a8:96:01:c0:65:93:8e:3d:7a:6c:bf:ed:c8:2a:f8:26:
         cc:00:17:b7:27:ca:85:6c:2e:d5:2a:0a:8d:f3:88:e8:26:48:
         e3:e8
-----BEGIN CERTIFICATE-----
MIIDaTCCAtKgAwIBAgIBBDANBgkqhkiG9w0BAQUFADBkMQswCQYDVQQGEwJVUzET
MBEGA1UECBMKQ2FsaWZvcm5pYTEVMBMGA1UEBxMMRGVmYXVsdCBDaXR5MRIwEAYD
VQQKEwlPcGVuUmVzdHkxFTATBgNVBAMTDHNpZ25pbmctY2EtMjAgFw0xNDEwMTYw
MzI3MDlaGA8yMTE0MDkyMjAzMjcwOVowYDELMAkGA1UEBhMCVVMxEzARBgNVBAgT
CkNhbGlmb3JuaWExFTATBgNVBAcTDERlZmF1bHQgQ2l0eTESMBAGA1UEChMJT3Bl
blJlc3R5MREwDwYDVQQDEwh0ZXN0LmNvbTCBnzANBgkqhkiG9w0BAQEFAAOBjQAw
gYkCgYEAx71QmXFGr5Mihat0i1sZdK8+rdLhFz7LWzaciji9G0cti5JVHf6mcpJ4
AN4wy6MQtZKquOB7RJr1mYk29IQggeNcdgCddue5Qat0thSfspSztkioktwJ4z0E
418PW1CtDFk6iAY5LTSmUi9Yb1Mb35+Y6oKNUmCx72vp9a0ph0UCAwEAAaOCASsw
ggEnMAkGA1UdEwQCMAAwLAYJYIZIAYb4QgENBB8WHU9wZW5TU0wgR2VuZXJhdGVk
IENlcnRpZmljYXRlMB0GA1UdDgQWBBRn3ygl0fiDNiju20Fj5OA6Mg3qMDCBjgYD
VR0jBIGGMIGDgBSzC/V9URZRfig3w6IPHS8QwFGjs6FopGYwZDELMAkGA1UEBhMC
VVMxEzARBgNVBAgTCkNhbGlmb3JuaWExFTATBgNVBAcTDERlZmF1bHQgQ2l0eTES
MBAGA1UEChMJT3BlblJlc3R5MRUwEwYDVQQDEwxzaWduaW5nLWNhLTGCAQMwPAYI
KwYBBQUHAQEEMDAuMCwGCCsGAQUFBzABhiBodHRwOi8vMTI3LjAuMC4xOjg4ODgv
b2NzcD9mb289MTANBgkqhkiG9w0BAQUFAAOBgQA3KT/t2UeaUTajWwCFZt5RTUgt
+LzxXrT9MEjwJe53V5zxSwpPfpYa+Eh2I0aN1vJeHghSElMIB59123ciLn6Jwixm
hWvf6XfKI22ar4eKjCc3Hp5Vko6KqZMkQaiWAcBlk449emy/7cgq+CbMABe3J8qF
bC7VKgqN84joJkjj6A==
-----END CERTIFICATE-----
