Certificate:
    Data:
        Version: 3 (0x2)
        Serial Number: 4 (0x4)
    Signature Algorithm: sha1WithRSAEncryption
        Issuer: C=US, ST=California, L=Default City, O=OpenResty, CN=signing-ca-2
        Validity
            Not Before: Oct 16 03:27:09 2014 GMT
            Not After : Sep 22 03:27:09 2114 GMT
        Subject: C=US, ST=California, L=Default City, O=OpenResty, CN=test.com
        Subject Public Key Info:
            Public Key Algorithm: rsaEncryption
                Public-Key: (1024 bit)
                Modulus:
                    00:c7:bd:50:99:71:46:af:93:22:85:ab:74:8b:5b:
                    19:74:af:3e:ad:d2:e1:17:3e:cb:5b:36:9c:8a:38:
                    bd:1b:47:2d:8b:92:55:1d:fe:a6:72:92:78:00:de:
                    30:cb:a3:10:b5:92:aa:b8:e0:7b:44:9a:f5:99:89:
                    36:f4:84:20:81:e3:5c:76:00:9d:76:e7:b9:41:ab:
                    74:b6:14:9f:b2:94:b3:b6:48:a8:92:dc:09:e3:3d:
                    04:e3:5f:0f:5b:50:ad:0c:59:3a:88:06:39:2d:34:
                    a6:52:2f:58:6f:53:1b:df:9f:98:ea:82:8d:52:60:
                    b1:ef:6b:e9:f5:ad:29:87:45
                Exponent: 65537 (0x10001)
        X509v3 extensions:
            X509v3 Basic Constraints: 
                CA:FALSE
            Netscape Comment: 
                OpenSSL Generated Certificate
            X509v3 Subject Key Identifier: 
                67:DF:28:25:D1:F8:83:36:28:EE:DB:41:63:E4:E0:3A:32:0D:EA:30
            X509v3 Authority Key Identifier: 
                keyid:B3:0B:F5:7D:51:16:51:7E:28:37:C3:A2:0F:1D:2F:10:C0:51:A3:B3
                DirName:/C=US/ST=California/L=Default City/O=OpenResty/CN=signing-ca-1
                serial:03

            Authority Information Access: 
                OCSP - URI:http://127.0.0.1:8888/ocsp?foo=1

    Signature Algorithm: sha1WithRSAEncryption
         37:29:3f:ed:d9:47:9a:51:36:a3:5b:00:85:66:de:51:4d:48:
         2d:f8:bc:f1:5e:b4:fd:30:48:f0:25:ee:77:57:9c:f1:4b:0a:
         4f:7e:96:1a:f8:48:76:23:46:8d:d6:f2:5e:1e:08:52:12:53:
         08:07:9f:75:db:77:22:2e:7e:89:c2:2c:66:85:6b:df:e9:77:
         ca:23:6d:9a:af:87:8a:8c:27:37:1e:9e:55:92:8e:8a:a9:93:
         24:41:a8:96:01:c0:65:93:8e:3d:7a:6c:bf:ed:c8:2a:f8:26:
         cc:00:17:b7:27:ca:85:6c:2e:d5:2a:0a:8d:f3:88:e8:26:48:
         e3:e8
-----BEGIN CERTIFICATE-----
MIIDaTCCAtKgAwIBAgIBBDANBgkqhkiG9w0BAQUFADBkMQswCQYDVQQGEwJVUzET
MBEGA1UECBMKQ2FsaWZvcm5pYTEVMBMGA1UEBxMMRGVmYXVsdCBDaXR5MRIwEAYD
VQQKEwlPcGVuUmVzdHkxFTATBgNVBAMTDHNpZ25pbmctY2EtMjAgFw0xNDEwMTYw
MzI3MDlaGA8yMTE0MDkyMjAzMjcwOVowYDELMAkGA1UEBhMCVVMxEzARBgNVBAgT
CkNhbGlmb3JuaWExFTATBgNVBAcTDERlZmF1bHQgQ2l0eTESMBAGA1UEChMJT3Bl
blJlc3R5MREwDwYDVQQDEwh0ZXN0LmNvbTCBnzANBgkqhkiG9w0BAQEFAAOBjQAw
gYkCgYEAx71QmXFGr5Mihat0i1sZdK8+rdLhFz7LWzaciji9G0cti5JVHf6mcpJ4
AN4wy6MQtZKquOB7RJr1mYk29IQggeNcdgCddue5Qat0thSfspSztkioktwJ4z0E
418PW1CtDFk6iAY5LTSmUi9Yb1Mb35+Y6oKNUmCx72vp9a0ph0UCAwEAAaOCASsw
ggEnMAkGA1UdEwQCMAAwLAYJYIZIAYb4QgENBB8WHU9wZW5TU0wgR2VuZXJhdGVk
IENlcnRpZmljYXRlMB0GA1UdDgQWBBRn3ygl0fiDNiju20Fj5OA6Mg3qMDCBjgYD
VR0jBIGGMIGDgBSzC/V9URZRfig3w6IPHS8QwFGjs6FopGYwZDELMAkGA1UEBhMC
VVMxEzARBgNVBAgTCkNhbGlmb3JuaWExFTATBgNVBAcTDERlZmF1bHQgQ2l0eTES
MBAGA1UEChMJT3BlblJlc3R5MRUwEwYDVQQDEwxzaWduaW5nLWNhLTGCAQMwPAYI
KwYBBQUHAQEEMDAuMCwGCCsGAQUFBzABhiBodHRwOi8vMTI3LjAuMC4xOjg4ODgv
b2NzcD9mb289MTANBgkqhkiG9w0BAQUFAAOBgQA3KT/t2UeaUTajWwCFZt5RTUgt
+LzxXrT9MEjwJe53V5zxSwpPfpYa+Eh2I0aN1vJeHghSElMIB59123ciLn6Jwixm
hWvf6XfKI22ar4eKjCc3Hp5Vko6KqZMkQaiWAcBlk449emy/7cgq+CbMABe3J8qF
bC7VKgqN84joJkjj6A==
-----END CERTIFICATE-----
Certificate:
    Data:
        Version: 3 (0x2)
        Serial Number: 2 (0x2)
    Signature Algorithm: sha1WithRSAEncryption
        Issuer: C=US, ST=California, L=Default City, O=OpenResty, CN=root-ca
        Validity
            Not Before: Oct 16 03:27:09 2014 GMT
            Not After : Sep 22 03:27:09 2114 GMT
        Subject: C=US, ST=California, L=Default City, O=OpenResty, CN=signing-ca-1
        Subject Public Key Info:
            Public Key Algorithm: rsaEncryption
                Public-Key: (1024 bit)
                Modulus:
                    00:a0:3e:1a:4f:6c:b9:3d:ab:0f:02:de:da:82:92:
                    ee:a2:69:88:80:ed:f2:b6:98:bc:c6:ee:d3:47:82:
                    4a:e7:d3:7f:55:68:5c:6d:9e:aa:ba:59:e3:5b:7f:
                    32:4f:79:44:4a:4f:13:e4:2e:3f:1f:98:10:a4:72:
                    d5:f0:e7:44:8e:d4:a7:b9:fb:54:be:b6:fa:f7:dc:
                    9c:29:93:d4:9f:a1:5b:18:6e:68:93:91:1b:8c:a0:
                    4f:02:52:e9:9d:e8:98:f3:fd:67:da:78:4b:4f:d8:
                    2d:90:83:5c:0b:e5:fe:48:27:e4:ec:bb:99:26:06:
                    8e:34:fe:93:e4:d2:fc:97:57
                Exponent: 65537 (0x10001)
        X509v3 extensions:
            X509v3 Subject Key Identifier: 
                D2:30:71:56:50:A6:BC:21:C5:A1:A1:AB:11:A7:08:5B:EB:3A:A4:27
            X509v3 Authority Key Identifier: 
                keyid:1D:2F:09:60:EB:E4:EA:B5:0B:52:A9:5C:5E:09:2B:DD:34:70:CF:BA

            X509v3 Basic Constraints: 
                CA:TRUE
    Signature Algorithm: sha1WithRSAEncryption
         a6:16:2f:fc:13:67:5e:ce:0e:79:cb:b0:91:52:9b:9e:b5:9f:
         e1:fa:7d:78:f4:2a:93:f3:94:62:45:17:87:b9:0a:59:b9:a3:
         a9:75:51:ca:f0:04:6c:01:d1:3a:a9:dd:66:7d:27:7b:1e:4f:
         48:3a:25:ea:a5:01:32:fc:87:4b:08:da:f8:f5:62:88:e8:b9:
         94:c7:cb:ee:33:08:ab:2f:52:f4:4a:14:4f:ac:2d:a2:f8:de:
         c9:6f:95:b7:91:23:b9:ec:95:90:de:86:21:f5:6f:1b:cf:13:
         47:77:78:dd:7a:16:e9:8b:cc:df:3d:45:8a:76:af:15:d1:9a:
         37:a2
-----BEGIN CERTIFICATE-----
MIICizCCAfSgAwIBAgIBAjANBgkqhkiG9w0BAQUFADBfMQswCQYDVQQGEwJVUzET
MBEGA1UECBMKQ2FsaWZvcm5pYTEVMBMGA1UEBxMMRGVmYXVsdCBDaXR5MRIwEAYD
VQQKEwlPcGVuUmVzdHkxEDAOBgNVBAMTB3Jvb3QtY2EwIBcNMTQxMDE2MDMyNzA5
WhgPMjExNDA5MjIwMzI3MDlaMGQxCzAJBgNVBAYTAlVTMRMwEQYDVQQIEwpDYWxp
Zm9ybmlhMRUwEwYDVQQHEwxEZWZhdWx0IENpdHkxEjAQBgNVBAoTCU9wZW5SZXN0
eTEVMBMGA1UEAxMMc2lnbmluZy1jYS0xMIGfMA0GCSqGSIb3DQEBAQUAA4GNADCB
iQKBgQCgPhpPbLk9qw8C3tqCku6iaYiA7fK2mLzG7tNHgkrn039VaFxtnqq6WeNb
fzJPeURKTxPkLj8fmBCkctXw50SO1Ke5+1S+tvr33Jwpk9SfoVsYbmiTkRuMoE8C
Uumd6Jjz/WfaeEtP2C2Qg1wL5f5IJ+Tsu5kmBo40/pPk0vyXVwIDAQABo1AwTjAd
BgNVHQ4EFgQU0jBxVlCmvCHFoaGrEacIW+s6pCcwHwYDVR0jBBgwFoAUHS8JYOvk
6rULUqlcXgkr3TRwz7owDAYDVR0TBAUwAwEB/zANBgkqhkiG9w0BAQUFAAOBgQCm
Fi/8E2dezg55y7CRUpuetZ/h+n149CqT85RiRReHuQpZuaOpdVHK8ARsAdE6qd1m
fSd7Hk9IOiXqpQEy/IdLCNr49WKI6LmUx8vuMwirL1L0ShRPrC2i+N7Jb5W3kSO5
7JWQ3oYh9W8bzxNHd3jdehbpi8zfPUWKdq8V0Zo3og==
-----END CERTIFICATE-----
Certificate:
    Data:
        Version: 3 (0x2)
        Serial Number: 3 (0x3)
    Signature Algorithm: sha1WithRSAEncryption
        Issuer: C=US, ST=California, L=Default City, O=OpenResty, CN=signing-ca-1
        Validity
            Not Before: Oct 16 03:27:09 2014 GMT
            Not After : Sep 22 03:27:09 2114 GMT
        Subject: C=US, ST=California, L=Default City, O=OpenResty, CN=signing-ca-2
        Subject Public Key Info:
            Public Key Algorithm: rsaEncryption
                Public-Key: (1024 bit)
                Modulus:
                    00:d3:24:1c:92:a5:bb:00:d9:b1:fb:2b:1d:7a:32:
                    a1:6c:49:eb:3c:2d:29:80:d6:65:8b:17:3a:f0:4b:
                    dc:0c:57:fb:d5:31:68:a5:e4:54:86:55:f9:1b:a8:
                    d7:7d:32:01:3b:cf:5c:38:2b:f5:bc:d3:8b:c8:b6:
                    ab:76:65:32:e6:4b:d5:e4:fd:d1:92:c8:33:6a:74:
                    f3:c7:ec:97:c3:c7:9f:e4:d5:55:75:b8:bd:39:ec:
                    2d:1f:c6:54:c8:2b:2d:17:e0:05:77:28:44:f7:dd:
                    e1:6e:f0:59:05:51:f5:b9:b4:fe:be:ad:40:a6:d5:
                    9a:c1:64:e0:9b:dd:67:e5:f1
                Exponent: 65537 (0x10001)
        X509v3 extensions:
            X509v3 Subject Key Identifier: 
                B3:0B:F5:7D:51:16:51:7E:28:37:C3:A2:0F:1D:2F:10:C0:51:A3:B3
            X509v3 Authority Key Identifier: 
                keyid:D2:30:71:56:50:A6:BC:21:C5:A1:A1:AB:11:A7:08:5B:EB:3A:A4:27

            X509v3 Basic Constraints: 
                CA:TRUE
    Signature Algorithm: sha1WithRSAEncryption
         0c:61:c0:c7:11:c2:f0:39:f0:76:9d:4f:43:d4:90:54:1f:26:
         3d:54:3d:77:5f:c0:b3:4a:c2:1b:b6:18:d2:12:8d:24:4d:76:
         f5:07:0b:14:3e:17:2d:42:ee:85:30:db:e3:4d:81:67:59:97:
         0a:b3:bb:c5:27:ea:69:c6:ee:99:5c:44:36:53:3e:c4:47:68:
         f8:fe:c6:53:38:fb:e7:9a:0c:3c:6c:78:93:29:d2:49:7d:29:
         d0:61:6e:81:9b:d6:ec:1a:e2:3e:62:62:41:bc:6d:4d:33:91:
         76:20:5e:32:70:08:3e:24:72:fe:b1:8a:83:57:04:19:b5:cb:
         99:b7
-----BEGIN CERTIFICATE-----
MIICkDCCAfmgAwIBAgIBAzANBgkqhkiG9w0BAQUFADBkMQswCQYDVQQGEwJVUzET
MBEGA1UECBMKQ2FsaWZvcm5pYTEVMBMGA1UEBxMMRGVmYXVsdCBDaXR5MRIwEAYD
VQQKEwlPcGVuUmVzdHkxFTATBgNVBAMTDHNpZ25pbmctY2EtMTAgFw0xNDEwMTYw
MzI3MDlaGA8yMTE0MDkyMjAzMjcwOVowZDELMAkGA1UEBhMCVVMxEzARBgNVBAgT
CkNhbGlmb3JuaWExFTATBgNVBAcTDERlZmF1bHQgQ2l0eTESMBAGA1UEChMJT3Bl
blJlc3R5MRUwEwYDVQQDEwxzaWduaW5nLWNhLTIwgZ8wDQYJKoZIhvcNAQEBBQAD
gY0AMIGJAoGBANMkHJKluwDZsfsrHXoyoWxJ6zwtKYDWZYsXOvBL3AxX+9UxaKXk
VIZV+Ruo130yATvPXDgr9bzTi8i2q3ZlMuZL1eT90ZLIM2p088fsl8PHn+TVVXW4
vTnsLR/GVMgrLRfgBXcoRPfd4W7wWQVR9bm0/r6tQKbVmsFk4JvdZ+XxAgMBAAGj
UDBOMB0GA1UdDgQWBBSzC/V9URZRfig3w6IPHS8QwFGjszAfBgNVHSMEGDAWgBTS
MHFWUKa8IcWhoasRpwhb6zqkJzAMBgNVHRMEBTADAQH/MA0GCSqGSIb3DQEBBQUA
A4GBAAxhwMcRwvA58HadT0PUkFQfJj1UPXdfwLNKwhu2GNISjSRNdvUHCxQ+Fy1C
7oUw2+NNgWdZlwqzu8Un6mnG7plcRDZTPsRHaPj+xlM4++eaDDxseJMp0kl9KdBh
boGb1uwa4j5iYkG8bU0zkXYgXjJwCD4kcv6xioNXBBm1y5m3
-----END CERTIFICATE-----
