Certificate:
    Data:
        Version: 3 (0x2)
        Serial Number: 4 (0x4)
    Signature Algorithm: sha1WithRSAEncryption
        Issuer: C=US, ST=California, L=Default City, O=OpenResty, CN=signing-ca-2
        Validity
            Not Before: Oct 14 21:06:36 2014 GMT
            Not After : Sep 20 21:06:36 2114 GMT
        Subject: C=US, ST=California, L=Default City, O=OpenResty, CN=test.com
        Subject Public Key Info:
            Public Key Algorithm: rsaEncryption
                Public-Key: (1024 bit)
                Modulus:
                    00:c1:15:20:74:35:94:10:83:48:5e:06:ec:5f:3b:
                    f6:eb:b7:81:f3:9f:57:74:1f:55:7d:e3:e5:d9:90:
                    04:b3:4d:51:e9:40:df:65:57:87:bf:db:11:cd:75:
                    c7:51:da:cf:eb:8e:91:02:ae:45:9a:da:3d:8c:62:
                    4f:8d:69:95:a5:de:a5:93:34:39:a9:74:09:86:51:
                    fd:d3:ba:4d:71:00:00:75:bc:0f:04:34:20:0b:88:
                    61:d6:90:53:e1:0a:17:e6:8d:be:af:55:9e:1c:6b:
                    14:32:04:bd:3b:fc:41:96:3f:58:6c:16:c9:72:b7:
                    c3:bb:ed:ea:12:fc:b7:77:59
                Exponent: 65537 (0x10001)
        X509v3 extensions:
            X509v3 Basic Constraints: 
                CA:FALSE
            Netscape Comment: 
                OpenSSL Generated Certificate
            X509v3 Subject Key Identifier: 
                B7:E9:82:6F:DB:43:30:59:78:25:98:6B:65:98:17:F7:EA:6D:27:95
            X509v3 Authority Key Identifier: 
                keyid:BF:F3:05:AE:47:6B:FC:8C:22:F0:23:3B:E6:59:62:23:25:B0:75:6D
                DirName:/C=US/ST=California/L=Default City/O=OpenResty/CN=signing-ca-1
                serial:03

            Authority Information Access: 
                OCSP - URI:http://127.0.0.1:8888/

    Signature Algorithm: sha1WithRSAEncryption
         22:7f:fb:4c:be:d8:fc:91:18:07:e7:d3:92:80:03:79:0e:6b:
         f1:b2:ce:41:6a:65:db:03:d5:ef:91:76:16:a6:e9:03:af:09:
         89:36:62:6b:f6:1f:2a:f6:6b:74:44:81:6a:98:62:7d:b8:00:
         97:1c:35:46:fb:40:d2:ce:9f:c1:a5:db:6b:09:8e:ac:d2:dd:
         90:d9:b0:54:b2:7b:a8:fc:24:f2:14:81:99:6c:c8:f4:4a:37:
         ff:de:74:7d:74:b7:db:e2:3a:43:b7:99:34:80:a7:85:44:80:
         34:55:94:23:4b:22:c3:6a:84:86:fc:1e:99:a8:30:3b:87:4a:
         dc:3b
-----BEGIN CERTIFICATE-----
MIIDXzCCAsigAwIBAgIBBDANBgkqhkiG9w0BAQUFADBkMQswCQYDVQQGEwJVUzET
MBEGA1UECBMKQ2FsaWZvcm5pYTEVMBMGA1UEBxMMRGVmYXVsdCBDaXR5MRIwEAYD
VQQKEwlPcGVuUmVzdHkxFTATBgNVBAMTDHNpZ25pbmctY2EtMjAgFw0xNDEwMTQy
MTA2MzZaGA8yMTE0MDkyMDIxMDYzNlowYDELMAkGA1UEBhMCVVMxEzARBgNVBAgT
CkNhbGlmb3JuaWExFTATBgNVBAcTDERlZmF1bHQgQ2l0eTESMBAGA1UEChMJT3Bl
blJlc3R5MREwDwYDVQQDEwh0ZXN0LmNvbTCBnzANBgkqhkiG9w0BAQEFAAOBjQAw
gYkCgYEAwRUgdDWUEINIXgbsXzv267eB859XdB9VfePl2ZAEs01R6UDfZVeHv9sR
zXXHUdrP646RAq5Fmto9jGJPjWmVpd6lkzQ5qXQJhlH907pNcQAAdbwPBDQgC4hh
1pBT4QoX5o2+r1WeHGsUMgS9O/xBlj9YbBbJcrfDu+3qEvy3d1kCAwEAAaOCASEw
ggEdMAkGA1UdEwQCMAAwLAYJYIZIAYb4QgENBB8WHU9wZW5TU0wgR2VuZXJhdGVk
IENlcnRpZmljYXRlMB0GA1UdDgQWBBS36YJv20MwWXglmGtlmBf36m0nlTCBjgYD
VR0jBIGGMIGDgBS/8wWuR2v8jCLwIzvmWWIjJbB1baFopGYwZDELMAkGA1UEBhMC
VVMxEzARBgNVBAgTCkNhbGlmb3JuaWExFTATBgNVBAcTDERlZmF1bHQgQ2l0eTES
MBAGA1UEChMJT3BlblJlc3R5MRUwEwYDVQQDEwxzaWduaW5nLWNhLTGCAQMwMgYI
KwYBBQUHAQEEJjAkMCIGCCsGAQUFBzABhhZodHRwOi8vMTI3LjAuMC4xOjg4ODgv
MA0GCSqGSIb3DQEBBQUAA4GBACJ/+0y+2PyRGAfn05KAA3kOa/GyzkFqZdsD1e+R
dham6QOvCYk2Ymv2Hyr2a3REgWqYYn24AJccNUb7QNLOn8Gl22sJjqzS3ZDZsFSy
e6j8JPIUgZlsyPRKN//edH10t9viOkO3mTSAp4VEgDRVlCNLIsNqhIb8HpmoMDuH
Stw7
-----END CERTIFICATE-----
Certificate:
    Data:
        Version: 3 (0x2)
        Serial Number: 2 (0x2)
    Signature Algorithm: sha1WithRSAEncryption
        Issuer: C=US, ST=California, L=Default City, O=OpenResty, CN=root-ca
        Validity
            Not Before: Oct 14 21:06:36 2014 GMT
            Not After : Sep 20 21:06:36 2114 GMT
        Subject: C=US, ST=California, L=Default City, O=OpenResty, CN=signing-ca-1
        Subject Public Key Info:
            Public Key Algorithm: rsaEncryption
                Public-Key: (1024 bit)
                Modulus:
                    00:bc:7d:4b:3f:d8:66:9b:c2:69:59:ab:26:bf:3d:
                    7d:8f:fe:36:e2:4e:7a:26:e3:72:81:e5:7c:55:ca:
                    35:a2:30:52:44:fb:bd:29:62:b9:40:eb:fa:19:49:
                    4a:4c:cb:38:1e:d5:4b:09:83:46:9a:6a:6e:64:34:
                    c1:92:19:51:75:25:ea:37:47:f9:f8:4d:e1:3d:0a:
                    16:40:e9:ea:6a:c3:9a:10:c3:93:db:97:fc:42:85:
                    ab:ca:30:43:45:50:33:9e:04:c6:f7:1c:de:fa:66:
                    0d:f0:7d:36:50:c5:c7:37:07:17:4c:51:e1:fe:d0:
                    51:ef:40:47:08:c5:12:c6:c9
                Exponent: 65537 (0x10001)
        X509v3 extensions:
            X509v3 Subject Key Identifier: 
                45:B8:CC:76:36:B1:50:D5:59:DF:D7:9D:B7:54:2B:89:8E:C8:4A:64
            X509v3 Authority Key Identifier: 
                keyid:94:5E:37:4D:32:20:13:B0:FD:CD:CF:4A:2C:6A:22:05:D8:EE:EA:34

            X509v3 Basic Constraints: 
                CA:TRUE
    Signature Algorithm: sha1WithRSAEncryption
         99:a6:16:ca:7d:be:3e:6e:c7:0f:b4:b9:8c:95:63:7e:54:79:
         60:23:b8:c2:fa:0c:f2:7b:b9:34:f0:2f:7f:e3:d7:85:9c:77:
         67:47:63:4a:db:a1:72:a0:9c:ea:c4:56:e5:51:fe:42:31:a9:
         75:2b:24:e9:b6:1c:d3:41:1f:97:a5:1b:6c:16:50:db:f1:dc:
         61:6d:fc:9f:9f:54:54:de:fe:9f:98:e0:1c:4f:11:0d:ce:8d:
         32:7c:a4:6f:96:3f:db:75:f7:18:eb:b0:70:2d:d2:4d:eb:49:
         4c:3c:0f:bc:28:e7:bb:e6:6d:2f:e5:bd:00:68:69:bd:7d:f6:
         d1:fb
-----BEGIN CERTIFICATE-----
MIICizCCAfSgAwIBAgIBAjANBgkqhkiG9w0BAQUFADBfMQswCQYDVQQGEwJVUzET
MBEGA1UECBMKQ2FsaWZvcm5pYTEVMBMGA1UEBxMMRGVmYXVsdCBDaXR5MRIwEAYD
VQQKEwlPcGVuUmVzdHkxEDAOBgNVBAMTB3Jvb3QtY2EwIBcNMTQxMDE0MjEwNjM2
WhgPMjExNDA5MjAyMTA2MzZaMGQxCzAJBgNVBAYTAlVTMRMwEQYDVQQIEwpDYWxp
Zm9ybmlhMRUwEwYDVQQHEwxEZWZhdWx0IENpdHkxEjAQBgNVBAoTCU9wZW5SZXN0
eTEVMBMGA1UEAxMMc2lnbmluZy1jYS0xMIGfMA0GCSqGSIb3DQEBAQUAA4GNADCB
iQKBgQC8fUs/2GabwmlZqya/PX2P/jbiTnom43KB5XxVyjWiMFJE+70pYrlA6/oZ
SUpMyzge1UsJg0aaam5kNMGSGVF1Jeo3R/n4TeE9ChZA6epqw5oQw5Pbl/xChavK
MENFUDOeBMb3HN76Zg3wfTZQxcc3BxdMUeH+0FHvQEcIxRLGyQIDAQABo1AwTjAd
BgNVHQ4EFgQURbjMdjaxUNVZ39edt1QriY7ISmQwHwYDVR0jBBgwFoAUlF43TTIg
E7D9zc9KLGoiBdju6jQwDAYDVR0TBAUwAwEB/zANBgkqhkiG9w0BAQUFAAOBgQCZ
phbKfb4+bscPtLmMlWN+VHlgI7jC+gzye7k08C9/49eFnHdnR2NK26FyoJzqxFbl
Uf5CMal1KyTpthzTQR+XpRtsFlDb8dxhbfyfn1RU3v6fmOAcTxENzo0yfKRvlj/b
dfcY67BwLdJN60lMPA+8KOe75m0v5b0AaGm9ffbR+w==
-----END CERTIFICATE-----
Certificate:
    Data:
        Version: 3 (0x2)
        Serial Number: 3 (0x3)
    Signature Algorithm: sha1WithRSAEncryption
        Issuer: C=US, ST=California, L=Default City, O=OpenResty, CN=signing-ca-1
        Validity
            Not Before: Oct 14 21:06:36 2014 GMT
            Not After : Sep 20 21:06:36 2114 GMT
        Subject: C=US, ST=California, L=Default City, O=OpenResty, CN=signing-ca-2
        Subject Public Key Info:
            Public Key Algorithm: rsaEncryption
                Public-Key: (1024 bit)
                Modulus:
                    00:cb:87:d5:f0:e5:d7:b6:fe:21:5e:f1:8b:80:8b:
                    56:88:86:ef:32:5d:91:75:df:d3:71:f9:36:3d:31:
                    fa:4c:98:52:eb:3b:cf:44:be:30:5c:99:95:d4:dc:
                    91:7a:ae:35:88:d8:e9:32:00:55:a7:09:29:34:17:
                    e7:f2:bc:82:a7:0b:1c:dd:57:76:50:5d:85:74:47:
                    fe:d1:74:cf:2d:7e:89:44:9e:a8:ea:9e:4a:16:58:
                    c1:5d:40:6c:18:86:c9:b4:86:35:d7:d9:44:24:fa:
                    92:47:53:cf:0e:55:8d:dd:57:ed:35:4c:36:9a:6e:
                    dc:42:bb:53:3b:a2:ed:3b:37
                Exponent: 65537 (0x10001)
        X509v3 extensions:
            X509v3 Subject Key Identifier: 
                BF:F3:05:AE:47:6B:FC:8C:22:F0:23:3B:E6:59:62:23:25:B0:75:6D
            X509v3 Authority Key Identifier: 
                keyid:45:B8:CC:76:36:B1:50:D5:59:DF:D7:9D:B7:54:2B:89:8E:C8:4A:64

            X509v3 Basic Constraints: 
                CA:TRUE
    Signature Algorithm: sha1WithRSAEncryption
         17:5f:d2:05:0e:2f:7f:6e:b6:aa:63:74:3b:42:ff:24:76:04:
         83:0f:ee:0a:d8:9c:eb:f0:47:30:bf:f5:65:f7:2f:81:2e:6b:
         14:17:36:51:c6:07:66:2b:81:45:4b:41:4c:7d:ea:57:f8:ff:
         5d:75:14:6e:e0:36:3c:7c:87:c5:d9:1c:3f:9e:53:d0:74:e3:
         fc:9f:e3:ee:47:b4:ff:fb:03:ee:3d:c0:15:62:5f:b0:16:58:
         94:c3:63:a5:6a:d9:da:a7:60:c4:4b:de:c1:bf:fb:09:29:17:
         63:1b:9d:25:57:c6:4c:db:cf:85:86:c5:d1:be:7e:9d:a0:7b:
         b7:15
-----BEGIN CERTIFICATE-----
MIICkDCCAfmgAwIBAgIBAzANBgkqhkiG9w0BAQUFADBkMQswCQYDVQQGEwJVUzET
MBEGA1UECBMKQ2FsaWZvcm5pYTEVMBMGA1UEBxMMRGVmYXVsdCBDaXR5MRIwEAYD
VQQKEwlPcGVuUmVzdHkxFTATBgNVBAMTDHNpZ25pbmctY2EtMTAgFw0xNDEwMTQy
MTA2MzZaGA8yMTE0MDkyMDIxMDYzNlowZDELMAkGA1UEBhMCVVMxEzARBgNVBAgT
CkNhbGlmb3JuaWExFTATBgNVBAcTDERlZmF1bHQgQ2l0eTESMBAGA1UEChMJT3Bl
blJlc3R5MRUwEwYDVQQDEwxzaWduaW5nLWNhLTIwgZ8wDQYJKoZIhvcNAQEBBQAD
gY0AMIGJAoGBAMuH1fDl17b+IV7xi4CLVoiG7zJdkXXf03H5Nj0x+kyYUus7z0S+
MFyZldTckXquNYjY6TIAVacJKTQX5/K8gqcLHN1XdlBdhXRH/tF0zy1+iUSeqOqe
ShZYwV1AbBiGybSGNdfZRCT6kkdTzw5Vjd1X7TVMNppu3EK7Uzui7Ts3AgMBAAGj
UDBOMB0GA1UdDgQWBBS/8wWuR2v8jCLwIzvmWWIjJbB1bTAfBgNVHSMEGDAWgBRF
uMx2NrFQ1Vnf1523VCuJjshKZDAMBgNVHRMEBTADAQH/MA0GCSqGSIb3DQEBBQUA
A4GBABdf0gUOL39utqpjdDtC/yR2BIMP7grYnOvwRzC/9WX3L4EuaxQXNlHGB2Yr
gUVLQUx96lf4/111FG7gNjx8h8XZHD+eU9B04/yf4+5HtP/7A+49wBViX7AWWJTD
Y6Vq2dqnYMRL3sG/+wkpF2MbnSVXxkzbz4WGxdG+fp2ge7cV
-----END CERTIFICATE-----
